target datalayout = "e-m:e-p270:32:32-p271:32:32-p272:64:64-i64:64-i128:128-f80:128-n8:16:32:64-S128"
target triple = "x86_64-pc-linux-gnu"

%struct._packet_info = type { ptr, ptr, i32, i32, %struct.nstime_t, %struct.nstime_t, %struct.nstime_t, i8, ptr, ptr, ptr, ptr, %struct._address, %struct._address, %struct._address, %struct._address, %struct._address, %struct._address, i32, ptr, i8, [3 x i8], %struct.anon, i32, i32, i32, i32, ptr, i8, ptr, ptr, i16, i16, i32, i32, i16, i32, i32, ptr, ptr, ptr, i8, i8, i16, i16, i16, i32, i16, i16, ptr, ptr, ptr, ptr, ptr, i32, i32 }
%struct.nstime_t = type { i64, i32 }
%struct._address = type { i32, i32, ptr, ptr }
%struct.anon = type { i8, [3 x i8] }
%struct._proto_node = type { ptr, ptr, ptr, ptr, ptr, ptr, ptr }
%struct.field_info = type { ptr, i32, i32, i32, i32, i32, i32, ptr, ptr, ptr, i32, i32 }

@hf_wisun_eapol_relay_sup = internal global i32 0, align 4
@hf_wisun_eapol_relay_kmp_id = internal global i32 0, align 4
@hf_wisun_eapol_relay_direction = internal global i32 0, align 4
@ett_wisun_eapol_relay = internal global i32 0, align 4
@proto_wisun_eapol_relay = internal global i32 0, align 4
@eapol_handle = internal global ptr null, align 8
@.str.530 = private unnamed_addr constant [13 x i8] c" [Relay \E2\86\91]\00", align 1
@.str.531 = private unnamed_addr constant [13 x i8] c" [Relay \E2\86\93]\00", align 1

; Function Attrs: inlinehint nounwind null_pointer_is_valid sspstrong uwtable
define internal void @proto_item_set_generated(ptr noundef %0) #3 {
  %2 = alloca ptr, align 8
  store ptr %0, ptr %2, align 8
  %3 = load ptr, ptr %2, align 8
  %4 = icmp ne ptr %3, null
  br i1 %4, label %5, label %24

5:                                                ; preds = %1
  br label %6

6:                                                ; preds = %5
  %7 = load ptr, ptr %2, align 8
  %8 = getelementptr inbounds nuw %struct._proto_node, ptr %7, i32 0, i32 5
  %9 = load ptr, ptr %8, align 8
  %10 = icmp ne ptr %9, null
  br i1 %10, label %11, label %22

11:                                               ; preds = %6
  %12 = load ptr, ptr %2, align 8
  %13 = getelementptr inbounds nuw %struct._proto_node, ptr %12, i32 0, i32 5
  %14 = load ptr, ptr %13, align 8
  %15 = getelementptr inbounds nuw %struct.field_info, ptr %14, i32 0, i32 6
  %16 = load i32, ptr %15, align 4
  %17 = or i32 %16, 2
  %18 = load ptr, ptr %2, align 8
  %19 = getelementptr inbounds nuw %struct._proto_node, ptr %18, i32 0, i32 5
  %20 = load ptr, ptr %19, align 8
  %21 = getelementptr inbounds nuw %struct.field_info, ptr %20, i32 0, i32 6
  store i32 %17, ptr %21, align 4
  br label %22

22:                                               ; preds = %11, %6
  br label %23

23:                                               ; preds = %22
  br label %24

24:                                               ; preds = %23, %1
  ret void
}

; Function Attrs: null_pointer_is_valid sspstrong uwtable
define internal i32 @dissect_wisun_eapol_relay(ptr noundef %0, ptr noundef %1, ptr noundef %2, ptr noundef %3) #0 {
  %5 = alloca ptr, align 8
  %6 = alloca ptr, align 8
  %7 = alloca ptr, align 8
  %8 = alloca ptr, align 8
  %9 = alloca i32, align 4
  %10 = alloca ptr, align 8
  %11 = alloca ptr, align 8
  %12 = alloca i32, align 4
  %13 = alloca ptr, align 8
  %14 = alloca i32, align 4
  store ptr %0, ptr %5, align 8
  store ptr %1, ptr %6, align 8
  store ptr %2, ptr %7, align 8
  store ptr %3, ptr %8, align 8
  call void @llvm.lifetime.start.p0(i64 4, ptr %9) #7
  store i32 0, ptr %9, align 4
  call void @llvm.lifetime.start.p0(i64 8, ptr %10) #7
  %15 = load ptr, ptr %7, align 8
  %16 = load i32, ptr @proto_wisun_eapol_relay, align 4
  %17 = load ptr, ptr %5, align 8
  %18 = load i32, ptr %9, align 4
  %19 = call ptr @proto_tree_add_item(ptr noundef %15, i32 noundef %16, ptr noundef %17, i32 noundef %18, i32 noundef 9, i32 noundef 0)
  store ptr %19, ptr %10, align 8
  call void @llvm.lifetime.start.p0(i64 8, ptr %11) #7
  %20 = load ptr, ptr %10, align 8
  %21 = load i32, ptr @ett_wisun_eapol_relay, align 4
  %22 = call ptr @proto_item_add_subtree(ptr noundef %20, i32 noundef %21)
  store ptr %22, ptr %11, align 8
  %23 = load ptr, ptr %11, align 8
  %24 = load i32, ptr @hf_wisun_eapol_relay_sup, align 4
  %25 = load ptr, ptr %5, align 8
  %26 = load i32, ptr %9, align 4
  %27 = call ptr @proto_tree_add_item(ptr noundef %23, i32 noundef %24, ptr noundef %25, i32 noundef %26, i32 noundef 8, i32 noundef 0)
  %28 = load i32, ptr %9, align 4
  %29 = add i32 %28, 8
  store i32 %29, ptr %9, align 4
  %30 = load ptr, ptr %11, align 8
  %31 = load i32, ptr @hf_wisun_eapol_relay_kmp_id, align 4
  %32 = load ptr, ptr %5, align 8
  %33 = load i32, ptr %9, align 4
  %34 = call ptr @proto_tree_add_item(ptr noundef %30, i32 noundef %31, ptr noundef %32, i32 noundef %33, i32 noundef 1, i32 noundef 0)
  %35 = load i32, ptr %9, align 4
  %36 = add i32 %35, 1
  store i32 %36, ptr %9, align 4
  call void @llvm.lifetime.start.p0(i64 4, ptr %12) #7
  store i32 0, ptr %12, align 4
  %37 = load ptr, ptr %5, align 8
  %38 = load i32, ptr %9, align 4
  %39 = add i32 %38, 1
  %40 = call zeroext i8 @tvb_get_uint8(ptr noundef %37, i32 noundef %39)
  %41 = zext i8 %40 to i32
  %42 = icmp eq i32 %41, 0
  br i1 %42, label %43, label %51

43:                                               ; preds = %4
  %44 = load ptr, ptr %5, align 8
  %45 = load i32, ptr %9, align 4
  %46 = add i32 %45, 4
  %47 = call zeroext i8 @tvb_get_uint8(ptr noundef %44, i32 noundef %46)
  %48 = zext i8 %47 to i32
  %49 = icmp eq i32 %48, 2
  %50 = zext i1 %49 to i32
  store i32 %50, ptr %12, align 4
  br label %60

51:                                               ; preds = %4
  %52 = load ptr, ptr %5, align 8
  %53 = load i32, ptr %9, align 4
  %54 = add i32 %53, 6
  %55 = call zeroext i8 @tvb_get_uint8(ptr noundef %52, i32 noundef %54)
  %56 = zext i8 %55 to i32
  %57 = and i32 %56, 128
  %58 = icmp eq i32 %57, 0
  %59 = zext i1 %58 to i32
  store i32 %59, ptr %12, align 4
  br label %60

60:                                               ; preds = %51, %43
  call void @llvm.lifetime.start.p0(i64 8, ptr %13) #7
  %61 = load ptr, ptr %11, align 8
  %62 = load i32, ptr @hf_wisun_eapol_relay_direction, align 4
  %63 = load ptr, ptr %5, align 8
  %64 = load i32, ptr %9, align 4
  %65 = load i32, ptr %12, align 4
  %66 = sext i32 %65 to i64
  %67 = call ptr @proto_tree_add_boolean(ptr noundef %61, i32 noundef %62, ptr noundef %63, i32 noundef %64, i32 noundef 0, i64 noundef %66)
  store ptr %67, ptr %13, align 8
  %68 = load ptr, ptr %13, align 8
  call void @proto_item_set_generated(ptr noundef %68)
  call void @llvm.lifetime.start.p0(i64 4, ptr %14) #7
  %69 = load ptr, ptr @eapol_handle, align 8
  %70 = load ptr, ptr %5, align 8
  %71 = load i32, ptr %9, align 4
  %72 = call ptr @tvb_new_subset_remaining(ptr noundef %70, i32 noundef %71)
  %73 = load ptr, ptr %6, align 8
  %74 = load ptr, ptr %7, align 8
  %75 = call i32 @call_dissector(ptr noundef %69, ptr noundef %72, ptr noundef %73, ptr noundef %74)
  store i32 %75, ptr %14, align 4
  %76 = load ptr, ptr %6, align 8
  %77 = getelementptr inbounds nuw %struct._packet_info, ptr %76, i32 0, i32 1
  %78 = load ptr, ptr %77, align 8
  %79 = load i32, ptr %12, align 4
  %80 = icmp ne i32 %79, 0
  %81 = select i1 %80, ptr @.str.530, ptr @.str.531
  call void @col_append_str(ptr noundef %78, i32 noundef 25, ptr noundef %81)
  %82 = load i32, ptr %9, align 4
  %83 = load i32, ptr %14, align 4
  %84 = add i32 %82, %83
  call void @llvm.lifetime.end.p0(i64 4, ptr %14) #7
  call void @llvm.lifetime.end.p0(i64 8, ptr %13) #7
  call void @llvm.lifetime.end.p0(i64 4, ptr %12) #7
  call void @llvm.lifetime.end.p0(i64 8, ptr %11) #7
  call void @llvm.lifetime.end.p0(i64 8, ptr %10) #7
  call void @llvm.lifetime.end.p0(i64 4, ptr %9) #7
  ret i32 %84
}