; Function Attrs: null_pointer_is_valid sspstrong uwtable
define internal i32 @dissect_wisun_eapol_relay(ptr noundef %0, ptr noundef %1, ptr noundef %2, ptr readnone captures(none) %3) #0 {
  %5 = load i32, ptr @proto_wisun_eapol_relay, align 4
  %6 = tail call ptr @proto_tree_add_item(ptr noundef %2, i32 noundef %5, ptr noundef %0, i32 noundef 0, i32 noundef 9, i32 noundef 0)
  %7 = load i32, ptr @ett_wisun_eapol_relay, align 4
  %8 = tail call ptr @proto_item_add_subtree(ptr noundef %6, i32 noundef %7)
  %9 = load i32, ptr @hf_wisun_eapol_relay_sup, align 4
  %10 = tail call ptr @proto_tree_add_item(ptr noundef %8, i32 noundef %9, ptr noundef %0, i32 noundef 0, i32 noundef 8, i32 noundef 0)
  %11 = load i32, ptr @hf_wisun_eapol_relay_kmp_id, align 4
  %12 = tail call ptr @proto_tree_add_item(ptr noundef %8, i32 noundef %11, ptr noundef %0, i32 noundef 8, i32 noundef 1, i32 noundef 0)
  %13 = tail call zeroext i8 @tvb_get_uint8(ptr noundef %0, i32 noundef 10)
  %14 = icmp eq i8 %13, 0
  br i1 %14, label %15, label %18

15:                                               ; preds = %4
  %16 = tail call zeroext i8 @tvb_get_uint8(ptr noundef %0, i32 noundef 13)
  %17 = icmp eq i8 %16, 2
  br label %21

18:                                               ; preds = %4
  %19 = tail call zeroext i8 @tvb_get_uint8(ptr noundef %0, i32 noundef 15)
  %20 = icmp sgt i8 %19, -1
  br label %21

21:                                               ; preds = %18, %15
  %.0.in = phi i1 [ %17, %15 ], [ %20, %18 ]
  %22 = load i32, ptr @hf_wisun_eapol_relay_direction, align 4
  %23 = zext i1 %.0.in to i64
  %24 = tail call ptr @proto_tree_add_boolean(ptr noundef %8, i32 noundef %22, ptr noundef %0, i32 noundef 9, i32 noundef 0, i64 noundef %23)
  %.not.i = icmp eq ptr %24, null
  br i1 %.not.i, label %proto_item_set_generated.exit, label %25

25:                                               ; preds = %21
  %26 = getelementptr inbounds nuw i8, ptr %24, i64 40
  %27 = load ptr, ptr %26, align 8
  %.not5.i = icmp eq ptr %27, null
  br i1 %.not5.i, label %proto_item_set_generated.exit, label %28

28:                                               ; preds = %25
  %29 = getelementptr inbounds nuw i8, ptr %27, i64 28
  %30 = load i32, ptr %29, align 4
  %31 = or i32 %30, 2
  store i32 %31, ptr %29, align 4
  br label %proto_item_set_generated.exit

proto_item_set_generated.exit:                    ; preds = %21, %25, %28
  %32 = load ptr, ptr @eapol_handle, align 8
  %33 = tail call ptr @tvb_new_subset_remaining(ptr noundef %0, i32 noundef 9)
  %34 = tail call i32 @call_dissector(ptr noundef %32, ptr noundef %33, ptr noundef %1, ptr noundef %2)
  %35 = getelementptr inbounds nuw i8, ptr %1, i64 8
  %36 = load ptr, ptr %35, align 8
  %37 = select i1 %.0.in, ptr @.str.530, ptr @.str.531
  tail call void @col_append_str(ptr noundef %36, i32 noundef 25, ptr noundef nonnull %37)
  %38 = add i32 %34, 9
  ret i32 %38
}